target datalayout = "e-m:e-p270:32:32-p271:32:32-p272:64:64-i64:64-i128:128-f80:128-n8:16:32:64-S128"
target triple = "x86_64-pc-linux-gnu"

%struct.FunctionCallInfoBaseData = type { ptr, ptr, ptr, i32, i8, i16, [0 x %struct.NullableDatum] }
%struct.NullableDatum = type { i64, i8 }

; Function Attrs: inlinehint nounwind uwtable
define internal ptr @DatumGetPointer(i64 noundef %0) #2 {
  %2 = alloca i64, align 8
  store i64 %0, ptr %2, align 8
  %3 = load i64, ptr %2, align 8
  %4 = inttoptr i64 %3 to ptr
  ret ptr %4
}

; Function Attrs: inlinehint nounwind uwtable
define internal i64 @Int32GetDatum(i32 noundef %0) #2 {
  %2 = alloca i32, align 4
  store i32 %0, ptr %2, align 4
  %3 = load i32, ptr %2, align 4
  %4 = sext i32 %3 to i64
  ret i64 %4
}

; Function Attrs: inlinehint nounwind uwtable
define internal zeroext i1 @DatumGetBool(i64 noundef %0) #2 {
  %2 = alloca i64, align 8
  store i64 %0, ptr %2, align 8
  %3 = load i64, ptr %2, align 8
  %4 = icmp ne i64 %3, 0
  ret i1 %4
}

; Function Attrs: inlinehint nounwind uwtable
define internal i32 @DatumGetInt32(i64 noundef %0) #2 {
  %2 = alloca i64, align 8
  store i64 %0, ptr %2, align 8
  %3 = load i64, ptr %2, align 8
  %4 = trunc i64 %3 to i32
  ret i32 %4
}

; Function Attrs: inlinehint nounwind uwtable
define internal ptr @DatumGetCString(i64 noundef %0) #2 {
  %2 = alloca i64, align 8
  store i64 %0, ptr %2, align 8
  %3 = load i64, ptr %2, align 8
  %4 = call ptr @DatumGetPointer(i64 noundef %3)
  ret ptr %4
}

; Function Attrs: nounwind uwtable
define i64 @utf8_to_gb18030(ptr noundef %0) #0 {
  %2 = alloca ptr, align 8
  %3 = alloca ptr, align 8
  %4 = alloca ptr, align 8
  %5 = alloca i32, align 4
  %6 = alloca i8, align 1
  %7 = alloca i32, align 4
  store ptr %0, ptr %2, align 8
  call void @llvm.lifetime.start.p0(i64 8, ptr %3) #4
  %8 = load ptr, ptr %2, align 8
  %9 = getelementptr inbounds nuw %struct.FunctionCallInfoBaseData, ptr %8, i32 0, i32 6
  %10 = getelementptr inbounds [0 x %struct.NullableDatum], ptr %9, i64 0, i64 2
  %11 = getelementptr inbounds nuw %struct.NullableDatum, ptr %10, i32 0, i32 0
  %12 = load i64, ptr %11, align 8
  %13 = call ptr @DatumGetCString(i64 noundef %12)
  store ptr %13, ptr %3, align 8
  call void @llvm.lifetime.start.p0(i64 8, ptr %4) #4
  %14 = load ptr, ptr %2, align 8
  %15 = getelementptr inbounds nuw %struct.FunctionCallInfoBaseData, ptr %14, i32 0, i32 6
  %16 = getelementptr inbounds [0 x %struct.NullableDatum], ptr %15, i64 0, i64 3
  %17 = getelementptr inbounds nuw %struct.NullableDatum, ptr %16, i32 0, i32 0
  %18 = load i64, ptr %17, align 8
  %19 = call ptr @DatumGetCString(i64 noundef %18)
  store ptr %19, ptr %4, align 8
  call void @llvm.lifetime.start.p0(i64 4, ptr %5) #4
  %20 = load ptr, ptr %2, align 8
  %21 = getelementptr inbounds nuw %struct.FunctionCallInfoBaseData, ptr %20, i32 0, i32 6
  %22 = getelementptr inbounds [0 x %struct.NullableDatum], ptr %21, i64 0, i64 4
  %23 = getelementptr inbounds nuw %struct.NullableDatum, ptr %22, i32 0, i32 0
  %24 = load i64, ptr %23, align 8
  %25 = call i32 @DatumGetInt32(i64 noundef %24)
  store i32 %25, ptr %5, align 4
  call void @llvm.lifetime.start.p0(i64 1, ptr %6) #4
  %26 = load ptr, ptr %2, align 8
  %27 = getelementptr inbounds nuw %struct.FunctionCallInfoBaseData, ptr %26, i32 0, i32 6
  %28 = getelementptr inbounds [0 x %struct.NullableDatum], ptr %27, i64 0, i64 5
  %29 = getelementptr inbounds nuw %struct.NullableDatum, ptr %28, i32 0, i32 0
  %30 = load i64, ptr %29, align 8
  %31 = call zeroext i1 @DatumGetBool(i64 noundef %30)
  %32 = zext i1 %31 to i8
  store i8 %32, ptr %6, align 1
  call void @llvm.lifetime.start.p0(i64 4, ptr %7) #4
  %33 = load ptr, ptr %2, align 8
  %34 = getelementptr inbounds nuw %struct.FunctionCallInfoBaseData, ptr %33, i32 0, i32 6
  %35 = getelementptr inbounds [0 x %struct.NullableDatum], ptr %34, i64 0, i64 0
  %36 = getelementptr inbounds nuw %struct.NullableDatum, ptr %35, i32 0, i32 0
  %37 = load i64, ptr %36, align 8
  %38 = call i32 @DatumGetInt32(i64 noundef %37)
  %39 = load ptr, ptr %2, align 8
  %40 = getelementptr inbounds nuw %struct.FunctionCallInfoBaseData, ptr %39, i32 0, i32 6
  %41 = getelementptr inbounds [0 x %struct.NullableDatum], ptr %40, i64 0, i64 1
  %42 = getelementptr inbounds nuw %struct.NullableDatum, ptr %41, i32 0, i32 0
  %43 = load i64, ptr %42, align 8
  %44 = call i32 @DatumGetInt32(i64 noundef %43)
  %45 = load ptr, ptr %2, align 8
  %46 = getelementptr inbounds nuw %struct.FunctionCallInfoBaseData, ptr %45, i32 0, i32 6
  %47 = getelementptr inbounds [0 x %struct.NullableDatum], ptr %46, i64 0, i64 4
  %48 = getelementptr inbounds nuw %struct.NullableDatum, ptr %47, i32 0, i32 0
  %49 = load i64, ptr %48, align 8
  %50 = call i32 @DatumGetInt32(i64 noundef %49)
  call void @check_encoding_conversion_args(i32 noundef %38, i32 noundef %44, i32 noundef %50, i32 noundef 6, i32 noundef 39)
  %51 = load ptr, ptr %3, align 8
  %52 = load i32, ptr %5, align 4
  %53 = load ptr, ptr %4, align 8
  %54 = load i8, ptr %6, align 1, !range !3, !noundef !4
  %55 = trunc i8 %54 to i1
  %56 = call i32 @UtfToLocal(ptr noundef %51, i32 noundef %52, ptr noundef %53, ptr noundef @gb18030_from_unicode_tree, ptr noundef null, i32 noundef 0, ptr noundef @conv_utf8_to_18030, i32 noundef 39, i1 noundef zeroext %55)
  store i32 %56, ptr %7, align 4
  %57 = load i32, ptr %7, align 4
  %58 = call i64 @Int32GetDatum(i32 noundef %57)
  call void @llvm.lifetime.end.p0(i64 4, ptr %7) #4
  call void @llvm.lifetime.end.p0(i64 1, ptr %6) #4
  call void @llvm.lifetime.end.p0(i64 4, ptr %5) #4
  call void @llvm.lifetime.end.p0(i64 8, ptr %4) #4
  call void @llvm.lifetime.end.p0(i64 8, ptr %3) #4
  ret i64 %58
}