; Function Attrs: nounwind uwtable
define range(i64 -2147483648, 2147483648) i64 @utf8_to_gb18030(ptr noundef readonly captures(none) %0) local_unnamed_addr #1 {
  %2 = getelementptr inbounds nuw i8, ptr %0, i64 32
  %3 = getelementptr inbounds nuw i8, ptr %0, i64 64
  %4 = load i64, ptr %3, align 8
  %5 = inttoptr i64 %4 to ptr
  %6 = getelementptr inbounds nuw i8, ptr %0, i64 80
  %7 = load i64, ptr %6, align 8
  %8 = inttoptr i64 %7 to ptr
  %9 = getelementptr inbounds nuw i8, ptr %0, i64 96
  %10 = load i64, ptr %9, align 8
  %11 = trunc i64 %10 to i32
  %12 = getelementptr inbounds nuw i8, ptr %0, i64 112
  %13 = load i64, ptr %12, align 8
  %14 = icmp ne i64 %13, 0
  %15 = load i64, ptr %2, align 8
  %16 = trunc i64 %15 to i32
  %17 = getelementptr inbounds nuw i8, ptr %0, i64 48
  %18 = load i64, ptr %17, align 8
  %19 = trunc i64 %18 to i32
  tail call void @check_encoding_conversion_args(i32 noundef %16, i32 noundef %19, i32 noundef %11, i32 noundef 6, i32 noundef 39) #4
  %20 = tail call i32 @UtfToLocal(ptr noundef %5, i32 noundef %11, ptr noundef %8, ptr noundef nonnull @gb18030_from_unicode_tree, ptr noundef null, i32 noundef 0, ptr noundef nonnull @conv_utf8_to_18030, i32 noundef 39, i1 noundef zeroext %14) #4
  %21 = sext i32 %20 to i64
  ret i64 %21
}